target datalayout = "e-m:e-p270:32:32-p271:32:32-p272:64:64-i64:64-i128:128-f80:128-n8:16:32:64-S128"
target triple = "x86_64-pc-linux-gnu"

; Function Attrs: nounwind uwtable
define dso_local void @makeBinaryTree(i32 noundef %0, ptr noundef %1) #0 {
  %3 = alloca i32, align 4
  %4 = alloca ptr, align 8
  %5 = alloca i32, align 4
  %6 = alloca i32, align 4
  store i32 %0, ptr %3, align 4, !tbaa !4
  store ptr %1, ptr %4, align 8, !tbaa !8
  call void @llvm.lifetime.start.p0(i64 4, ptr %5) #11
  %7 = load i32, ptr %3, align 4, !tbaa !4
  %8 = shl i32 1, %7
  %9 = sub i32 %8, 1
  store i32 %9, ptr %5, align 4, !tbaa !4
  call void @llvm.lifetime.start.p0(i64 4, ptr %6) #11
  store i32 1, ptr %6, align 4, !tbaa !4
  br label %10

10:                                               ; preds = %25, %2
  %11 = load i32, ptr %6, align 4, !tbaa !4
  %12 = load i32, ptr %5, align 4, !tbaa !4
  %13 = icmp ule i32 %11, %12
  br i1 %13, label %15, label %14

14:                                               ; preds = %10
  call void @llvm.lifetime.end.p0(i64 4, ptr %6) #11
  br label %28

15:                                               ; preds = %10
  %16 = load ptr, ptr %4, align 8, !tbaa !8
  %17 = load i32, ptr %6, align 4, !tbaa !4
  %18 = load i32, ptr %6, align 4, !tbaa !4
  %19 = mul i32 2, %18
  call void %16(i32 noundef %17, i32 noundef %19)
  %20 = load ptr, ptr %4, align 8, !tbaa !8
  %21 = load i32, ptr %6, align 4, !tbaa !4
  %22 = load i32, ptr %6, align 4, !tbaa !4
  %23 = mul i32 2, %22
  %24 = add i32 %23, 1
  call void %20(i32 noundef %21, i32 noundef %24)
  br label %25

25:                                               ; preds = %15
  %26 = load i32, ptr %6, align 4, !tbaa !4
  %27 = add i32 %26, 1
  store i32 %27, ptr %6, align 4, !tbaa !4
  br label %10, !llvm.loop !37

28:                                               ; preds = %14
  call void @llvm.lifetime.end.p0(i64 4, ptr %5) #11
  ret void
}