; Function Attrs: nounwind uwtable
define dso_local void @makeBinaryTree(i32 noundef %0, ptr noundef readonly captures(none) %1) local_unnamed_addr #0 {
  %.not.not10.not = icmp eq i32 %0, 0
  br i1 %.not.not10.not, label %._crit_edge, label %.lr.ph

._crit_edge:                                      ; preds = %.lr.ph, %2
  ret void

.lr.ph:                                           ; preds = %2, %.lr.ph
  %.011 = phi i32 [ %5, %.lr.ph ], [ 1, %2 ]
  %3 = shl i32 %.011, 1
  tail call void %1(i32 noundef %.011, i32 noundef %3) #15
  %4 = or disjoint i32 %3, 1
  tail call void %1(i32 noundef %.011, i32 noundef %4) #15
  %5 = add i32 %.011, 1
  %.0.highbits = lshr i32 %5, %0
  %.not.not = icmp eq i32 %.0.highbits, 0
  br i1 %.not.not, label %.lr.ph, label %._crit_edge, !llvm.loop !34
}